; ModuleID = 'source-C-CXX/14/279.c'
source_filename = "source-C-CXX/14/279.c"
target datalayout = "e-m:e-p270:32:32-p271:32:32-p272:64:64-i64:64-f80:128-n8:16:32:64-S128"
target triple = "x86_64-pc-linux-gnu"

@.str = private unnamed_addr constant [3 x i8] c"%d\00", align 1

; Function Attrs: nofree nounwind sspstrong uwtable
define dso_local i32 @main() local_unnamed_addr #0 {
  %1 = alloca i32, align 4
  %2 = alloca i32, align 4
  %3 = bitcast i32* %1 to i8*
  call void @llvm.lifetime.start.p0i8(i64 4, i8* nonnull %3) #3
  %4 = bitcast i32* %2 to i8*
  call void @llvm.lifetime.start.p0i8(i64 4, i8* nonnull %4) #3
  %5 = call i32 (i8*, ...) @__isoc99_scanf(i8* getelementptr inbounds ([3 x i8], [3 x i8]* @.str, i64 0, i64 0), i32* nonnull %1)
  %6 = load i32, i32* %1, align 4, !tbaa !5
  %7 = icmp slt i32 %6, 1
  br i1 %7, label %43, label %8

8:                                                ; preds = %0, %35
  %9 = phi i32 [ %36, %35 ], [ %6, %0 ]
  %10 = phi i32 [ %40, %35 ], [ 0, %0 ]
  %11 = phi i32 [ %39, %35 ], [ 0, %0 ]
  %12 = phi i32 [ %38, %35 ], [ 0, %0 ]
  %13 = phi i32 [ %37, %35 ], [ 0, %0 ]
  %14 = phi i32 [ %41, %35 ], [ 1, %0 ]
  %15 = icmp slt i32 %9, 1
  br i1 %15, label %35, label %16

16:                                               ; preds = %8, %16
  %17 = phi i32 [ %31, %16 ], [ %10, %8 ]
  %18 = phi i32 [ %30, %16 ], [ %11, %8 ]
  %19 = phi i32 [ %28, %16 ], [ %12, %8 ]
  %20 = phi i32 [ %27, %16 ], [ %13, %8 ]
  %21 = phi i32 [ %32, %16 ], [ 1, %8 ]
  %22 = call i32 (i8*, ...) @__isoc99_scanf(i8* getelementptr inbounds ([3 x i8], [3 x i8]* @.str, i64 0, i64 0), i32* nonnull %2)
  %23 = icmp ne i32 %20, 0
  %24 = load i32, i32* %2, align 4
  %25 = icmp ne i32 %24, 0
  %26 = select i1 %23, i1 true, i1 %25
  %27 = select i1 %26, i32 %20, i32 %14
  %28 = select i1 %26, i32 %19, i32 %21
  %29 = icmp eq i32 %24, 0
  %30 = select i1 %29, i32 %14, i32 %18
  %31 = select i1 %29, i32 %21, i32 %17
  %32 = add nuw nsw i32 %21, 1
  %33 = load i32, i32* %1, align 4, !tbaa !5
  %34 = icmp slt i32 %21, %33
  br i1 %34, label %16, label %35, !llvm.loop !9

35:                                               ; preds = %16, %8
  %36 = phi i32 [ %9, %8 ], [ %33, %16 ]
  %37 = phi i32 [ %13, %8 ], [ %27, %16 ]
  %38 = phi i32 [ %12, %8 ], [ %28, %16 ]
  %39 = phi i32 [ %11, %8 ], [ %30, %16 ]
  %40 = phi i32 [ %10, %8 ], [ %31, %16 ]
  %41 = add nuw nsw i32 %14, 1
  %42 = icmp slt i32 %14, %36
  br i1 %42, label %8, label %43, !llvm.loop !11

43:                                               ; preds = %35, %0
  %44 = phi i32 [ 0, %0 ], [ %37, %35 ]
  %45 = phi i32 [ 0, %0 ], [ %38, %35 ]
  %46 = phi i32 [ 0, %0 ], [ %39, %35 ]
  %47 = phi i32 [ 0, %0 ], [ %40, %35 ]
  %48 = xor i32 %44, -1
  %49 = add i32 %46, %48
  %50 = xor i32 %45, -1
  %51 = add i32 %47, %50
  %52 = mul nsw i32 %51, %49
  %53 = call i32 (i8*, ...) @printf(i8* nonnull dereferenceable(1) getelementptr inbounds ([3 x i8], [3 x i8]* @.str, i64 0, i64 0), i32 %52)
  call void @llvm.lifetime.end.p0i8(i64 4, i8* nonnull %4) #3
  call void @llvm.lifetime.end.p0i8(i64 4, i8* nonnull %3) #3
  ret i32 0
}

; Function Attrs: argmemonly mustprogress nofree nosync nounwind willreturn
declare void @llvm.lifetime.start.p0i8(i64 immarg, i8* nocapture) #1

; Function Attrs: nofree nounwind
declare noundef i32 @__isoc99_scanf(i8* nocapture noundef readonly, ...) local_unnamed_addr #2

; Function Attrs: nofree nounwind
declare noundef i32 @printf(i8* nocapture noundef readonly, ...) local_unnamed_addr #2

; Function Attrs: argmemonly mustprogress nofree nosync nounwind willreturn
declare void @llvm.lifetime.end.p0i8(i64 immarg, i8* nocapture) #1


!llvm.module.flags = !{!0, !1, !2, !3}
!llvm.ident = !{!4}

!0 = !{i32 1, !"wchar_size", i32 4}
!1 = !{i32 7, !"PIC Level", i32 2}
!2 = !{i32 7, !"PIE Level", i32 2}
!3 = !{i32 7, !"uwtable", i32 1}
!4 = !{!"clang version 13.0.0"}
!5 = !{!6, !6, i64 0}
!6 = !{!"int", !7, i64 0}
!7 = !{!"omnipotent char", !8, i64 0}
!8 = !{!"Simple C/C++ TBAA"}
!9 = distinct !{!9, !10}
!10 = !{!"llvm.loop.mustprogress"}
!11 = distinct !{!11, !10, !12}
!12 = !{!"llvm.loop.unswitch.partial.disable"}
